; ModuleID = '60/25.c'
source_filename = "60/25.c"
target datalayout = "e-m:e-p270:32:32-p271:32:32-p272:64:64-i64:64-f80:128-n8:16:32:64-S128"
target triple = "x86_64-pc-linux-gnu"

@.str = private unnamed_addr constant [3 x i8] c"%d\00", align 1
@.str.1 = private unnamed_addr constant [7 x i8] c"%d %d\0A\00", align 1
@.str.2 = private unnamed_addr constant [6 x i8] c"empty\00", align 1

; Function Attrs: noinline nounwind uwtable
define dso_local void @main() #0 {
  %1 = alloca i32, align 4
  %2 = alloca i32, align 4
  %3 = alloca i32, align 4
  %4 = alloca i32, align 4
  %5 = alloca i32, align 4
  %6 = alloca i32, align 4
  %7 = call i32 (i8*, ...) @__isoc99_scanf(i8* getelementptr inbounds ([3 x i8], [3 x i8]* @.str, i64 0, i64 0), i32* %1)
  store i32 0, i32* %6, align 4
  store i32 2, i32* %3, align 4
  br label %8

8:                                                ; preds = %70, %0
  %9 = load i32, i32* %3, align 4
  %10 = load i32, i32* %1, align 4
  %11 = icmp sle i32 %9, %10
  br i1 %11, label %12, label %73

12:                                               ; preds = %8
  %13 = load i32, i32* %3, align 4
  %14 = sitofp i32 %13 to double
  %15 = call double @sqrt(double %14) #3
  %16 = fptosi double %15 to i32
  store i32 %16, i32* %4, align 4
  store i32 2, i32* %2, align 4
  br label %17

17:                                               ; preds = %28, %12
  %18 = load i32, i32* %2, align 4
  %19 = load i32, i32* %4, align 4
  %20 = icmp sle i32 %18, %19
  br i1 %20, label %21, label %31

21:                                               ; preds = %17
  %22 = load i32, i32* %3, align 4
  %23 = load i32, i32* %2, align 4
  %24 = srem i32 %22, %23
  %25 = icmp eq i32 %24, 0
  br i1 %25, label %26, label %27

26:                                               ; preds = %21
  br label %31

27:                                               ; preds = %21
  br label %28

28:                                               ; preds = %27
  %29 = load i32, i32* %2, align 4
  %30 = add nsw i32 %29, 1
  store i32 %30, i32* %2, align 4
  br label %17

31:                                               ; preds = %26, %17
  %32 = load i32, i32* %2, align 4
  %33 = load i32, i32* %4, align 4
  %34 = icmp sgt i32 %32, %33
  br i1 %34, label %35, label %69

35:                                               ; preds = %31
  %36 = load i32, i32* %3, align 4
  %37 = add nsw i32 %36, 2
  store i32 %37, i32* %5, align 4
  %38 = load i32, i32* %5, align 4
  %39 = sitofp i32 %38 to double
  %40 = call double @sqrt(double %39) #3
  %41 = fptosi double %40 to i32
  store i32 %41, i32* %4, align 4
  store i32 2, i32* %2, align 4
  br label %42

42:                                               ; preds = %53, %35
  %43 = load i32, i32* %2, align 4
  %44 = load i32, i32* %4, align 4
  %45 = icmp sle i32 %43, %44
  br i1 %45, label %46, label %56

46:                                               ; preds = %42
  %47 = load i32, i32* %5, align 4
  %48 = load i32, i32* %2, align 4
  %49 = srem i32 %47, %48
  %50 = icmp eq i32 %49, 0
  br i1 %50, label %51, label %52

51:                                               ; preds = %46
  br label %56

52:                                               ; preds = %46
  br label %53

53:                                               ; preds = %52
  %54 = load i32, i32* %2, align 4
  %55 = add nsw i32 %54, 1
  store i32 %55, i32* %2, align 4
  br label %42

56:                                               ; preds = %51, %42
  %57 = load i32, i32* %2, align 4
  %58 = load i32, i32* %4, align 4
  %59 = icmp sgt i32 %57, %58
  br i1 %59, label %60, label %68

60:                                               ; preds = %56
  %61 = load i32, i32* %5, align 4
  %62 = load i32, i32* %1, align 4
  %63 = icmp sle i32 %61, %62
  br i1 %63, label %64, label %68

64:                                               ; preds = %60
  %65 = load i32, i32* %3, align 4
  %66 = load i32, i32* %5, align 4
  %67 = call i32 (i8*, ...) @printf(i8* getelementptr inbounds ([7 x i8], [7 x i8]* @.str.1, i64 0, i64 0), i32 %65, i32 %66)
  store i32 1, i32* %6, align 4
  br label %68

68:                                               ; preds = %64, %60, %56
  br label %69

69:                                               ; preds = %68, %31
  br label %70

70:                                               ; preds = %69
  %71 = load i32, i32* %3, align 4
  %72 = add nsw i32 %71, 1
  store i32 %72, i32* %3, align 4
  br label %8

73:                                               ; preds = %8
  %74 = load i32, i32* %6, align 4
  %75 = icmp eq i32 %74, 0
  br i1 %75, label %76, label %78

76:                                               ; preds = %73
  %77 = call i32 (i8*, ...) @printf(i8* getelementptr inbounds ([6 x i8], [6 x i8]* @.str.2, i64 0, i64 0))
  br label %78

78:                                               ; preds = %76, %73
  ret void
}

declare dso_local i32 @__isoc99_scanf(i8*, ...) #1

; Function Attrs: nounwind
declare dso_local double @sqrt(double) #2

declare dso_local i32 @printf(i8*, ...) #1


!llvm.module.flags = !{!0}
!llvm.ident = !{!1}

!0 = !{i32 1, !"wchar_size", i32 4}
!1 = !{!"clang version 10.0.0-4ubuntu1 "}
